; Function Attrs: nounwind uwtable
define hidden ptr @uv__strndup(ptr noundef readonly captures(none) %0, i64 noundef %1) local_unnamed_addr #0 {
  %3 = tail call i64 @strlen(ptr noundef nonnull dereferenceable(1) %0) #25
  %spec.select = tail call i64 @llvm.umin.i64(i64 %1, i64 %3)
  %4 = add i64 %spec.select, 1
  %.not.i = icmp eq i64 %4, 0
  br i1 %.not.i, label %uv__malloc.exit.thread, label %uv__malloc.exit

uv__malloc.exit:                                  ; preds = %2
  %5 = load ptr, ptr @uv__allocator.0, align 8
  %6 = tail call ptr %5(i64 noundef %4) #26
  %7 = icmp eq ptr %6, null
  br i1 %7, label %uv__malloc.exit.thread, label %8

8:                                                ; preds = %uv__malloc.exit
  %9 = getelementptr inbounds nuw i8, ptr %6, i64 %spec.select
  store i8 0, ptr %9, align 1
  tail call void @llvm.memcpy.p0.p0.i64(ptr nonnull align 1 %6, ptr nonnull align 1 %0, i64 %spec.select, i1 false)
  br label %uv__malloc.exit.thread

uv__malloc.exit.thread:                           ; preds = %2, %uv__malloc.exit, %8
  %.011 = phi ptr [ %6, %8 ], [ null, %uv__malloc.exit ], [ null, %2 ]
  ret ptr %.011
}